; ModuleID = '53/951.c'
source_filename = "53/951.c"
target datalayout = "e-m:e-p270:32:32-p271:32:32-p272:64:64-i64:64-f80:128-n8:16:32:64-S128"
target triple = "x86_64-pc-linux-gnu"

@.str = private unnamed_addr constant [3 x i8] c"%d\00", align 1
@.str.1 = private unnamed_addr constant [4 x i8] c",%d\00", align 1

; Function Attrs: noinline nounwind uwtable
define dso_local i32 @main() #0 {
  %1 = alloca i32, align 4
  %2 = alloca i32, align 4
  %3 = alloca i32, align 4
  %4 = alloca i32, align 4
  %5 = alloca i32, align 4
  %6 = alloca [300 x i32], align 16
  store i32 0, i32* %1, align 4
  store i32 0, i32* %5, align 4
  %7 = call i32 (i8*, ...) @__isoc99_scanf(i8* getelementptr inbounds ([3 x i8], [3 x i8]* @.str, i64 0, i64 0), i32* %2)
  store i32 0, i32* %3, align 4
  br label %8

8:                                                ; preds = %17, %0
  %9 = load i32, i32* %3, align 4
  %10 = load i32, i32* %2, align 4
  %11 = icmp slt i32 %9, %10
  br i1 %11, label %12, label %20

12:                                               ; preds = %8
  %13 = load i32, i32* %3, align 4
  %14 = sext i32 %13 to i64
  %15 = getelementptr inbounds [300 x i32], [300 x i32]* %6, i64 0, i64 %14
  %16 = call i32 (i8*, ...) @__isoc99_scanf(i8* getelementptr inbounds ([3 x i8], [3 x i8]* @.str, i64 0, i64 0), i32* %15)
  br label %17

17:                                               ; preds = %12
  %18 = load i32, i32* %3, align 4
  %19 = add nsw i32 %18, 1
  store i32 %19, i32* %3, align 4
  br label %8

20:                                               ; preds = %8
  store i32 0, i32* %3, align 4
  br label %21

21:                                               ; preds = %52, %20
  %22 = load i32, i32* %3, align 4
  %23 = load i32, i32* %2, align 4
  %24 = sub nsw i32 %23, 1
  %25 = icmp slt i32 %22, %24
  br i1 %25, label %26, label %55

26:                                               ; preds = %21
  %27 = load i32, i32* %3, align 4
  %28 = add nsw i32 %27, 1
  store i32 %28, i32* %4, align 4
  br label %29

29:                                               ; preds = %48, %26
  %30 = load i32, i32* %4, align 4
  %31 = load i32, i32* %2, align 4
  %32 = icmp slt i32 %30, %31
  br i1 %32, label %33, label %51

33:                                               ; preds = %29
  %34 = load i32, i32* %3, align 4
  %35 = sext i32 %34 to i64
  %36 = getelementptr inbounds [300 x i32], [300 x i32]* %6, i64 0, i64 %35
  %37 = load i32, i32* %36, align 4
  %38 = load i32, i32* %4, align 4
  %39 = sext i32 %38 to i64
  %40 = getelementptr inbounds [300 x i32], [300 x i32]* %6, i64 0, i64 %39
  %41 = load i32, i32* %40, align 4
  %42 = icmp eq i32 %37, %41
  br i1 %42, label %43, label %47

43:                                               ; preds = %33
  %44 = load i32, i32* %4, align 4
  %45 = sext i32 %44 to i64
  %46 = getelementptr inbounds [300 x i32], [300 x i32]* %6, i64 0, i64 %45
  store i32 -10, i32* %46, align 4
  br label %47

47:                                               ; preds = %43, %33
  br label %48

48:                                               ; preds = %47
  %49 = load i32, i32* %4, align 4
  %50 = add nsw i32 %49, 1
  store i32 %50, i32* %4, align 4
  br label %29

51:                                               ; preds = %29
  br label %52

52:                                               ; preds = %51
  %53 = load i32, i32* %3, align 4
  %54 = add nsw i32 %53, 1
  store i32 %54, i32* %3, align 4
  br label %21

55:                                               ; preds = %21
  %56 = getelementptr inbounds [300 x i32], [300 x i32]* %6, i64 0, i64 0
  %57 = load i32, i32* %56, align 16
  %58 = call i32 (i8*, ...) @printf(i8* getelementptr inbounds ([3 x i8], [3 x i8]* @.str, i64 0, i64 0), i32 %57)
  store i32 1, i32* %3, align 4
  br label %59

59:                                               ; preds = %76, %55
  %60 = load i32, i32* %3, align 4
  %61 = load i32, i32* %2, align 4
  %62 = icmp slt i32 %60, %61
  br i1 %62, label %63, label %79

63:                                               ; preds = %59
  %64 = load i32, i32* %3, align 4
  %65 = sext i32 %64 to i64
  %66 = getelementptr inbounds [300 x i32], [300 x i32]* %6, i64 0, i64 %65
  %67 = load i32, i32* %66, align 4
  %68 = icmp ne i32 %67, -10
  br i1 %68, label %69, label %75

69:                                               ; preds = %63
  %70 = load i32, i32* %3, align 4
  %71 = sext i32 %70 to i64
  %72 = getelementptr inbounds [300 x i32], [300 x i32]* %6, i64 0, i64 %71
  %73 = load i32, i32* %72, align 4
  %74 = call i32 (i8*, ...) @printf(i8* getelementptr inbounds ([4 x i8], [4 x i8]* @.str.1, i64 0, i64 0), i32 %73)
  br label %75

75:                                               ; preds = %69, %63
  br label %76

76:                                               ; preds = %75
  %77 = load i32, i32* %3, align 4
  %78 = add nsw i32 %77, 1
  store i32 %78, i32* %3, align 4
  br label %59

79:                                               ; preds = %59
  ret i32 0
}

declare dso_local i32 @__isoc99_scanf(i8*, ...) #1

declare dso_local i32 @printf(i8*, ...) #1


!llvm.module.flags = !{!0}
!llvm.ident = !{!1}

!0 = !{i32 1, !"wchar_size", i32 4}
!1 = !{!"clang version 10.0.0-4ubuntu1 "}
